; Function Attrs: mustprogress uwtable
define void @_ZN9grpc_core19DirectoryReaderImpl7ForEachEN4absl12lts_2024072211FunctionRefIFvSt17basic_string_viewIcSt11char_traitsIcEEEEE(ptr dead_on_unwind noalias writable sret(%"class.absl::lts_20240722::Status") align 8 %0, ptr noundef nonnull readonly align 8 captures(none) dereferenceable(40) %1, ptr %2, ptr readonly captures(none) %3) unnamed_addr #3 align 2 personality ptr @__gxx_personality_v0 {
  %5 = getelementptr inbounds nuw i8, ptr %1, i64 8
  %6 = load ptr, ptr %5, align 8, !tbaa !16
  %7 = tail call ptr @opendir(ptr noundef %6)
  %8 = icmp eq ptr %7, null
  br i1 %8, label %10, label %.preheader

.preheader:                                       ; preds = %4
  %9 = tail call ptr @readdir(ptr noundef nonnull %7)
  %.not23 = icmp eq ptr %9, null
  br i1 %.not23, label %._crit_edge, label %.lr.ph

10:                                               ; preds = %4
  tail call void @_ZN4absl12lts_2024072213InternalErrorESt17basic_string_viewIcSt11char_traitsIcEE(ptr dead_on_unwind writable sret(%"class.absl::lts_20240722::Status") align 8 %0, i64 29, ptr nonnull @.str)
  br label %19

.lr.ph:                                           ; preds = %.preheader, %_ZSteqIcSt11char_traitsIcEEbSt17basic_string_viewIT_T0_ENSt15__type_identityIS5_E4typeE.exit
  %11 = phi ptr [ %17, %_ZSteqIcSt11char_traitsIcEEbSt17basic_string_viewIT_T0_ENSt15__type_identityIS5_E4typeE.exit ], [ %9, %.preheader ]
  %12 = getelementptr inbounds nuw i8, ptr %11, i64 19
  %13 = tail call noundef i64 @strlen(ptr noundef nonnull dereferenceable(1) %12) #18
  switch i64 %13, label %16 [
    i64 2, label %_ZNSt11char_traitsIcE7compareEPKcS2_m.exit.i.i
    i64 1, label %_ZNSt11char_traitsIcE7compareEPKcS2_m.exit.i.i10
  ]

_ZNSt11char_traitsIcE7compareEPKcS2_m.exit.i.i:   ; preds = %.lr.ph
  %bcmp.i = tail call i32 @bcmp(ptr noundef nonnull dereferenceable(2) %12, ptr noundef nonnull dereferenceable(2) @_ZN9grpc_core12_GLOBAL__N_118kSkipEntriesParentE, i64 2)
  %14 = icmp eq i32 %bcmp.i, 0
  br i1 %14, label %_ZSteqIcSt11char_traitsIcEEbSt17basic_string_viewIT_T0_ENSt15__type_identityIS5_E4typeE.exit, label %16, !llvm.loop !23

_ZNSt11char_traitsIcE7compareEPKcS2_m.exit.i.i10: ; preds = %.lr.ph
  %lhsc = load i8, ptr %12, align 1
  %15 = icmp eq i8 %lhsc, 46
  br i1 %15, label %_ZSteqIcSt11char_traitsIcEEbSt17basic_string_viewIT_T0_ENSt15__type_identityIS5_E4typeE.exit, label %16, !llvm.loop !23

16:                                               ; preds = %_ZNSt11char_traitsIcE7compareEPKcS2_m.exit.i.i, %.lr.ph, %_ZNSt11char_traitsIcE7compareEPKcS2_m.exit.i.i10
  tail call void %3(ptr %2, i64 %13, ptr nonnull %12)
  br label %_ZSteqIcSt11char_traitsIcEEbSt17basic_string_viewIT_T0_ENSt15__type_identityIS5_E4typeE.exit

_ZSteqIcSt11char_traitsIcEEbSt17basic_string_viewIT_T0_ENSt15__type_identityIS5_E4typeE.exit: ; preds = %_ZNSt11char_traitsIcE7compareEPKcS2_m.exit.i.i10, %_ZNSt11char_traitsIcE7compareEPKcS2_m.exit.i.i, %16
  %17 = tail call ptr @readdir(ptr noundef nonnull %7)
  %.not = icmp eq ptr %17, null
  br i1 %.not, label %._crit_edge, label %.lr.ph

._crit_edge:                                      ; preds = %_ZSteqIcSt11char_traitsIcEEbSt17basic_string_viewIT_T0_ENSt15__type_identityIS5_E4typeE.exit, %.preheader
  %18 = tail call i32 @closedir(ptr noundef nonnull %7)
  store i64 1, ptr %0, align 8, !tbaa !25, !alias.scope !27
  br label %19

19:                                               ; preds = %._crit_edge, %10
  ret void
}